Vbody {\u000a  font-family: courier; }\u000a\u000a  .navbar .navbar-nav {\u000a    display: inline-block;\u000a    float: none;\u000a    vertical-align: top; }\u000a\u000a    .navbar .navbar-collapse {\u000a      text-align: center; }\u000a
p1
.