V.day-group {\u000a  border-left: 1px dashed lightgray;\u000a  margin-top: 20px; }\u000a\u000a  .group-header {\u000a    font-weight: bold; }\u000a\u000a    .weekday {\u000a      color: blue; }\u000a      .weekday.WED {\u000a        color: #FF9800; }\u000a        .weekday.THU {\u000a          color: #F44336; }\u000a          .weekday.FRI {\u000a            color: #9C27B0; }\u000a
p1
.