Vbody {\u000a  font-family: courier; }\u000a\u000a  .navbar {\u000a    text-align: center; }\u000a\u000a    dt:before {\u000a      content: '\u005ca\u005c\u000a'; }\u000a\u000a      dt {\u000a        display: inline; }\u000a\u000a        dd {\u000a          display: inline; }\u000a
p1
.