Vbody {\u000a  font-family: courier; }\u000a\u000a  .navbar {\u000a    text-align: center; }\u000a\u000a    dt {\u000a      display: block; }\u000a\u000a      dd {\u000a        display: inline-block; }\u000a
p1
.